target datalayout = "e-m:e-p270:32:32-p271:32:32-p272:64:64-i64:64-i128:128-f80:128-n8:16:32:64-S128"
target triple = "x86_64-pc-linux-gnu"

%struct.slice_buffer_s = type { ptr, ptr, i32, i32, i32, i32, ptr }
%struct.SnowContext = type { ptr, ptr, %struct.RangeCoder, %struct.HpelDSPContext, %struct.VideoDSPContext, %struct.H264QpelContext, %struct.SnowDWTContext, ptr, ptr, [8 x ptr], ptr, [32 x i8], [4224 x i8], i32, i32, i32, i32, i32, i32, i32, i32, i32, i32, i32, [8 x ptr], [8 x ptr], ptr, ptr, ptr, ptr, ptr, i32, i32, i32, i32, i32, i32, i32, i32, i32, i32, i32, i32, i32, i32, i32, [4 x %struct.Plane], ptr, %struct.slice_buffer_s, ptr, ptr, ptr, i32, i32 }
%struct.RangeCoder = type { i32, i32, i32, i32, [256 x i8], [256 x i8], ptr, ptr, ptr, i32 }
%struct.HpelDSPContext = type { [4 x [4 x ptr]], [4 x [4 x ptr]], [4 x [4 x ptr]], [4 x ptr] }
%struct.VideoDSPContext = type { ptr, ptr }
%struct.H264QpelContext = type { [4 x [16 x ptr]], [4 x [16 x ptr]] }
%struct.SnowDWTContext = type { ptr, ptr, ptr }
%struct.Plane = type { i32, i32, [8 x [4 x %struct.SubBand]], i32, [4 x i8], i32, i32, i32, [4 x i8], i32 }
%struct.SubBand = type { i32, i32, i32, i32, i32, ptr, ptr, i32, i32, i32, ptr, ptr, [519 x [32 x i8]] }
%struct.AVCodecContext = type { ptr, i32, i32, ptr, i32, i32, ptr, ptr, ptr, i64, i32, i32, ptr, i32, %struct.AVRational, %struct.AVRational, %struct.AVRational, i32, i32, i32, i32, i32, %struct.AVRational, i32, i32, i32, i32, i32, i32, i32, i32, i32, i32, i32, ptr, ptr, i32, float, float, float, float, float, float, float, float, float, i32, i32, i32, i32, i32, i32, i32, i32, i32, i32, i32, i32, ptr, ptr, ptr, i32, i32, i32, i32, i32, i32, i32, i32, i32, i32, %struct.AVChannelLayout, i32, i32, i32, i32, i32, i32, i32, i32, ptr, i32, i32, i32, float, float, i32, i32, i32, i32, i32, ptr, i64, i64, float, float, i32, i32, ptr, ptr, i32, i32, i32, i32, i32, ptr, ptr, ptr, ptr, i32, i32, [8 x i64], i32, i32, i32, i32, i32, i32, i32, ptr, ptr, i32, i32, i32, i32, i32, i32, i32, i32, i32, i32, ptr, ptr, i32, i32, ptr, ptr, ptr, ptr, i32, i32, i64, i32, i32, i64, ptr, i64, ptr, i32, ptr, i32 }
%struct.AVRational = type { i32, i32 }
%struct.AVChannelLayout = type { i32, i32, %union.anon, ptr }
%union.anon = type { i64 }

; Function Attrs: nounwind uwtable
define i32 @ff_snow_alloc_blocks(ptr noundef %0) #0 {
  %2 = alloca i32, align 4
  %3 = alloca ptr, align 8
  %4 = alloca i32, align 4
  %5 = alloca i32, align 4
  %6 = alloca i32, align 4
  store ptr %0, ptr %3, align 8, !tbaa !27
  call void @llvm.lifetime.start.p0(i64 4, ptr %4) #6
  %7 = load ptr, ptr %3, align 8, !tbaa !27
  %8 = getelementptr inbounds nuw %struct.SnowContext, ptr %7, i32 0, i32 1
  %9 = load ptr, ptr %8, align 8, !tbaa !32
  %10 = getelementptr inbounds nuw %struct.AVCodecContext, ptr %9, i32 0, i32 18
  %11 = load i32, ptr %10, align 8, !tbaa !45
  %12 = add nsw i32 %11, 16
  %13 = sub nsw i32 %12, 1
  %14 = ashr i32 %13, 4
  store i32 %14, ptr %4, align 4, !tbaa !9
  call void @llvm.lifetime.start.p0(i64 4, ptr %5) #6
  %15 = load ptr, ptr %3, align 8, !tbaa !27
  %16 = getelementptr inbounds nuw %struct.SnowContext, ptr %15, i32 0, i32 1
  %17 = load ptr, ptr %16, align 8, !tbaa !32
  %18 = getelementptr inbounds nuw %struct.AVCodecContext, ptr %17, i32 0, i32 19
  %19 = load i32, ptr %18, align 4, !tbaa !59
  %20 = add nsw i32 %19, 16
  %21 = sub nsw i32 %20, 1
  %22 = ashr i32 %21, 4
  store i32 %22, ptr %5, align 4, !tbaa !9
  %23 = load i32, ptr %4, align 4, !tbaa !9
  %24 = load ptr, ptr %3, align 8, !tbaa !27
  %25 = getelementptr inbounds nuw %struct.SnowContext, ptr %24, i32 0, i32 41
  store i32 %23, ptr %25, align 8, !tbaa !60
  %26 = load i32, ptr %5, align 4, !tbaa !9
  %27 = load ptr, ptr %3, align 8, !tbaa !27
  %28 = getelementptr inbounds nuw %struct.SnowContext, ptr %27, i32 0, i32 42
  store i32 %26, ptr %28, align 4, !tbaa !61
  %29 = load ptr, ptr %3, align 8, !tbaa !27
  %30 = getelementptr inbounds nuw %struct.SnowContext, ptr %29, i32 0, i32 47
  %31 = load ptr, ptr %30, align 8, !tbaa !62
  call void @av_free(ptr noundef %31)
  %32 = load i32, ptr %4, align 4, !tbaa !9
  %33 = load i32, ptr %5, align 4, !tbaa !9
  %34 = mul nsw i32 %32, %33
  %35 = sext i32 %34 to i64
  %36 = load ptr, ptr %3, align 8, !tbaa !27
  %37 = getelementptr inbounds nuw %struct.SnowContext, ptr %36, i32 0, i32 43
  %38 = load i32, ptr %37, align 8, !tbaa !63
  %39 = mul nsw i32 %38, 2
  %40 = zext i32 %39 to i64
  %41 = shl i64 10, %40
  %42 = call noalias ptr @av_calloc(i64 noundef %35, i64 noundef %41)
  %43 = load ptr, ptr %3, align 8, !tbaa !27
  %44 = getelementptr inbounds nuw %struct.SnowContext, ptr %43, i32 0, i32 47
  store ptr %42, ptr %44, align 8, !tbaa !62
  %45 = load ptr, ptr %3, align 8, !tbaa !27
  %46 = getelementptr inbounds nuw %struct.SnowContext, ptr %45, i32 0, i32 47
  %47 = load ptr, ptr %46, align 8, !tbaa !62
  %48 = icmp ne ptr %47, null
  br i1 %48, label %50, label %49

49:                                               ; preds = %1
  store i32 -12, ptr %2, align 4
  store i32 1, ptr %6, align 4
  br label %51

50:                                               ; preds = %1
  store i32 0, ptr %2, align 4
  store i32 1, ptr %6, align 4
  br label %51

51:                                               ; preds = %50, %49
  call void @llvm.lifetime.end.p0(i64 4, ptr %5) #6
  call void @llvm.lifetime.end.p0(i64 4, ptr %4) #6
  %52 = load i32, ptr %2, align 4
  ret i32 %52
}