; Function Attrs: nounwind uwtable
define range(i32 -12, 1) i32 @ff_snow_alloc_blocks(ptr noundef captures(none) initializes((6656, 6664)) %0) local_unnamed_addr #0 {
  %2 = getelementptr inbounds nuw i8, ptr %0, i64 8
  %3 = load ptr, ptr %2, align 8, !tbaa !25
  %4 = getelementptr inbounds nuw i8, ptr %3, i64 112
  %5 = load i32, ptr %4, align 8, !tbaa !38
  %6 = add nsw i32 %5, 15
  %7 = ashr i32 %6, 4
  %8 = getelementptr inbounds nuw i8, ptr %3, i64 116
  %9 = load i32, ptr %8, align 4, !tbaa !52
  %10 = add nsw i32 %9, 15
  %11 = ashr i32 %10, 4
  %12 = getelementptr inbounds nuw i8, ptr %0, i64 6656
  store i32 %7, ptr %12, align 8, !tbaa !53
  %13 = getelementptr inbounds nuw i8, ptr %0, i64 6660
  store i32 %11, ptr %13, align 4, !tbaa !54
  %14 = getelementptr inbounds nuw i8, ptr %0, i64 2141880
  %15 = load ptr, ptr %14, align 8, !tbaa !55
  tail call void @av_free(ptr noundef %15) #10
  %16 = mul nsw i32 %11, %7
  %17 = sext i32 %16 to i64
  %18 = getelementptr inbounds nuw i8, ptr %0, i64 6664
  %19 = load i32, ptr %18, align 8, !tbaa !56
  %20 = shl nsw i32 %19, 1
  %21 = zext nneg i32 %20 to i64
  %22 = shl i64 10, %21
  %23 = tail call noalias ptr @av_calloc(i64 noundef %17, i64 noundef %22) #10
  store ptr %23, ptr %14, align 8, !tbaa !55
  %.not = icmp eq ptr %23, null
  %. = select i1 %.not, i32 -12, i32 0
  ret i32 %.
}